(lp0
(F2.7486438751220703
F-0.05774567276239395
F-0.29522040486335754
tp1
a(F5.483753681182861
F0.7723220586776733
F-0.6237577795982361
tp2
a(F7.160053730010986
F1.507305383682251
F-0.9583593606948853
tp3
a(F8.11482048034668
F2.099463701248169
F-0.9209500551223755
tp4
a(F8.404556274414062
F2.258258581161499
F-0.7008653879165649
tp5
a(F7.951192378997803
F1.8078289031982422
F-0.38031232357025146
tp6
a(F7.215001583099365
F0.9685056805610657
F0.17732791602611542
tp7
a(F6.438166618347168
F0.7673964500427246
F0.5119662880897522
tp8
a(F5.878885269165039
F0.9195221066474915
F0.8389323949813843
tp9
a(F5.3153181076049805
F0.7529093027114868
F0.9412559270858765
tp10
a(F5.011812686920166
F0.31059789657592773
F1.013268232345581
tp11
a(F4.397233009338379
F0.33743274211883545
F1.0633397102355957
tp12
a(F4.57200288772583
F0.26076528429985046
F1.482595682144165
tp13
a(F4.6808929443359375
F0.591355562210083
F1.6567200422286987
tp14
a(F4.533492565155029
F1.1265190839767456
F1.565514087677002
tp15
a(F4.507690906524658
F1.5726945400238037
F1.658406138420105
tp16
a(F4.371915817260742
F1.5510613918304443
F1.9329379796981812
tp17
a(F4.553722858428955
F1.4889260530471802
F1.457908034324646
tp18
a(F4.377147674560547
F1.7567603588104248
F1.7672349214553833
tp19
a(F4.075198650360107
F1.314975380897522
F1.7807185649871826
tp20
a(F3.7639150619506836
F0.523123025894165
F3.294449806213379
tp21
a(F3.324950695037842
F0.5215703845024109
F4.555900573730469
tp22
a(F3.103303909301758
F0.2908945083618164
F4.926153659820557
tp23
a(F2.71738862991333
F-0.06494903564453125
F5.098833084106445
tp24
a(F2.548800230026245
F-0.14301161468029022
F5.203505516052246
tp25
a(F2.289963960647583
F-0.1817178875207901
F4.294669151306152
tp26
a(F2.2456183433532715
F-0.5163590312004089
F5.189898490905762
tp27
a(F1.8726614713668823
F-0.5812702775001526
F4.52970552444458
tp28
a(F1.365199327468872
F-0.8451984524726868
F4.670032501220703
tp29
a(F1.011910080909729
F-1.4936026334762573
F5.319695949554443
tp30
a(F1.0939241647720337
F-2.2481114864349365
F6.778195858001709
tp31
a(F1.1112089157104492
F-2.78928804397583
F8.100342750549316
tp32
a(F1.5034289360046387
F-3.4268622398376465
F8.861723899841309
tp33
a(F1.6027714014053345
F-3.5226709842681885
F8.134160041809082
tp34
a(F1.8817005157470703
F-4.2224626541137695
F8.939306259155273
tp35
a(F1.7782859802246094
F-3.362583637237549
F8.865036964416504
tp36
a(F0.4219900965690613
F-1.4222434759140015
F9.227980613708496
tp37
a(F-0.8020684123039246
F-0.9265649914741516
F8.58881664276123
tp38
a(F-1.1353638172149658
F-0.7447672486305237
F8.466337203979492
tp39
a(F-1.0080244541168213
F-0.3147313594818115
F9.83842945098877
tp40
a(F-0.44002798199653625
F0.5271157026290894
F7.330206871032715
tp41
a(F-0.4798889756202698
F0.23556166887283325
F5.008046627044678
tp42
a(F-2.3023905754089355
F0.207218736410141
F6.585779190063477
tp43
a(F-3.478099822998047
F-3.461843967437744
F4.899340629577637
tp44
a(F-1.8822534084320068
F-3.6725406646728516
F3.2003602981567383
tp45
a(F-131.90040588378906
F9.528440475463867
F-173.8755645751953
tp46
a.